; Function Attrs: mustprogress nounwind uwtable
define dso_local void @_ZN23DefaultProgramGeneratorD2Ev(ptr noundef nonnull align 8 dereferenceable(40) %0) unnamed_addr #4 align 2 personality ptr @__gxx_personality_v0 {
  store ptr getelementptr inbounds ({ [8 x ptr] }, ptr @_ZTV23DefaultProgramGenerator, i64 0, i32 0, i64 2), ptr %0, align 8
  invoke void @_ZN12Finalization14doFinalizationEv()
          to label %2 unwind label %11

2:                                                ; preds = %1
  %3 = getelementptr inbounds i8, ptr %0, i64 32
  %4 = load ptr, ptr %3, align 8
  %5 = icmp eq ptr %4, null
  br i1 %5, label %10, label %6

6:                                                ; preds = %2
  %7 = load ptr, ptr %4, align 8
  %8 = getelementptr inbounds i8, ptr %7, i64 8
  %9 = load ptr, ptr %8, align 8
  tail call void %9(ptr noundef nonnull align 8 dereferenceable(8) %4) #8
  br label %10

10:                                               ; preds = %6, %2
  tail call void @_ZN19AbsProgramGeneratorD2Ev(ptr noundef nonnull align 8 dereferenceable(8) %0) #8
  ret void

11:                                               ; preds = %1
  %12 = landingpad { ptr, i32 }
          catch ptr null
  %13 = extractvalue { ptr, i32 } %12, 0
  tail call void @__clang_call_terminate(ptr %13) #9
  unreachable
}